; ModuleID = 'source-C-CXX/59/1840.c'
source_filename = "source-C-CXX/59/1840.c"
target datalayout = "e-m:e-p270:32:32-p271:32:32-p272:64:64-i64:64-f80:128-n8:16:32:64-S128"
target triple = "x86_64-pc-linux-gnu"

@.str = private unnamed_addr constant [3 x i8] c"%d\00", align 1
@.str.1 = private unnamed_addr constant [7 x i8] c"%d %d\0A\00", align 1
@.str.2 = private unnamed_addr constant [6 x i8] c"empty\00", align 1

; Function Attrs: nofree nounwind sspstrong uwtable
define dso_local i32 @main() local_unnamed_addr #0 {
  %1 = alloca i32, align 4
  %2 = bitcast i32* %1 to i8*
  call void @llvm.lifetime.start.p0i8(i64 4, i8* nonnull %2) #4
  %3 = call i32 (i8*, ...) @__isoc99_scanf(i8* getelementptr inbounds ([3 x i8], [3 x i8]* @.str, i64 0, i64 0), i32* nonnull %1)
  %4 = load i32, i32* %1, align 4, !tbaa !5
  %5 = icmp slt i32 %4, 5
  br i1 %5, label %43, label %6

6:                                                ; preds = %0, %35
  %7 = phi i32 [ %36, %35 ], [ 0, %0 ]
  %8 = phi i32 [ %37, %35 ], [ 3, %0 ]
  %9 = add nuw nsw i32 %8, 2
  %10 = sitofp i32 %8 to double
  %11 = call double @sqrt(double %10) #4
  %12 = fptosi double %11 to i32
  %13 = icmp slt i32 %12, 1
  br i1 %13, label %26, label %14

14:                                               ; preds = %6, %21
  %15 = phi i32 [ %22, %21 ], [ 2, %6 ]
  %16 = urem i32 %8, %15
  %17 = icmp eq i32 %16, 0
  br i1 %17, label %26, label %18

18:                                               ; preds = %14
  %19 = urem i32 %9, %15
  %20 = icmp eq i32 %19, 0
  br i1 %20, label %26, label %21

21:                                               ; preds = %18
  %22 = add nuw nsw i32 %15, 1
  %23 = call double @sqrt(double %10) #4
  %24 = fptosi double %23 to i32
  %25 = icmp sgt i32 %15, %24
  br i1 %25, label %26, label %14, !llvm.loop !9

26:                                               ; preds = %21, %18, %14, %6
  %27 = phi i32 [ 2, %6 ], [ %15, %14 ], [ %15, %18 ], [ %22, %21 ]
  %28 = call double @sqrt(double %10) #4
  %29 = fptosi double %28 to i32
  %30 = add nsw i32 %29, 1
  %31 = icmp sgt i32 %27, %30
  br i1 %31, label %32, label %35

32:                                               ; preds = %26
  %33 = call i32 (i8*, ...) @printf(i8* nonnull dereferenceable(1) getelementptr inbounds ([7 x i8], [7 x i8]* @.str.1, i64 0, i64 0), i32 %8, i32 %9)
  %34 = add nsw i32 %7, 1
  br label %35

35:                                               ; preds = %26, %32
  %36 = phi i32 [ %34, %32 ], [ %7, %26 ]
  %37 = add nuw nsw i32 %8, 1
  %38 = load i32, i32* %1, align 4, !tbaa !5
  %39 = add nsw i32 %38, -2
  %40 = icmp slt i32 %8, %39
  br i1 %40, label %6, label %41, !llvm.loop !11

41:                                               ; preds = %35
  %42 = icmp eq i32 %36, 0
  br i1 %42, label %43, label %45

43:                                               ; preds = %0, %41
  %44 = call i32 (i8*, ...) @printf(i8* nonnull dereferenceable(1) getelementptr inbounds ([6 x i8], [6 x i8]* @.str.2, i64 0, i64 0))
  br label %45

45:                                               ; preds = %43, %41
  call void @llvm.lifetime.end.p0i8(i64 4, i8* nonnull %2) #4
  ret i32 0
}

; Function Attrs: argmemonly mustprogress nofree nosync nounwind willreturn
declare void @llvm.lifetime.start.p0i8(i64 immarg, i8* nocapture) #1

; Function Attrs: nofree nounwind
declare noundef i32 @__isoc99_scanf(i8* nocapture noundef readonly, ...) local_unnamed_addr #2

; Function Attrs: mustprogress nofree nounwind willreturn
declare double @sqrt(double) local_unnamed_addr #3

; Function Attrs: nofree nounwind
declare noundef i32 @printf(i8* nocapture noundef readonly, ...) local_unnamed_addr #2

; Function Attrs: argmemonly mustprogress nofree nosync nounwind willreturn
declare void @llvm.lifetime.end.p0i8(i64 immarg, i8* nocapture) #1


!llvm.module.flags = !{!0, !1, !2, !3}
!llvm.ident = !{!4}

!0 = !{i32 1, !"wchar_size", i32 4}
!1 = !{i32 7, !"PIC Level", i32 2}
!2 = !{i32 7, !"PIE Level", i32 2}
!3 = !{i32 7, !"uwtable", i32 1}
!4 = !{!"clang version 13.0.0"}
!5 = !{!6, !6, i64 0}
!6 = !{!"int", !7, i64 0}
!7 = !{!"omnipotent char", !8, i64 0}
!8 = !{!"Simple C/C++ TBAA"}
!9 = distinct !{!9, !10}
!10 = !{!"llvm.loop.mustprogress"}
!11 = distinct !{!11, !10}
